; Function Attrs: mustprogress uwtable
define internal void @"_ZNK4$_249to_stringB5cxx11E6insn_t"(ptr dead_on_unwind noalias writable sret(%"class.std::__cxx11::basic_string") align 8 %0, ptr nocapture nonnull readnone align 8 %1, i64 %2) unnamed_addr #1 align 2 {
  %4 = lshr i64 %2, 15
  %5 = and i64 %4, 31
  %6 = lshr i64 %2, 21
  %7 = and i64 %6, 32
  %8 = or disjoint i64 %5, %7
  tail call void @_ZNSt7__cxx119to_stringEm(ptr dead_on_unwind writable sret(%"class.std::__cxx11::basic_string") align 8 %0, i64 noundef %8)
  ret void
}